target datalayout = "e-m:e-p270:32:32-p271:32:32-p272:64:64-i64:64-i128:128-f80:128-n8:16:32:64-S128"
target triple = "x86_64-pc-linux-gnu"

%struct.termios = type { i32, i32, i32, i32, i8, [32 x i8], i32, i32 }

@_ZN7consoleL16advanced_displayE = internal global i8 0, align 1
@_ZN7consoleL9simple_ioE = internal global i8 1, align 1
@_ZN7consoleL13initial_stateE = internal global %struct.termios zeroinitializer, align 4
@.str = private unnamed_addr constant [9 x i8] c"/dev/tty\00", align 1
@.str.1 = private unnamed_addr constant [3 x i8] c"w+\00", align 1
@_ZN7consoleL3ttyE = internal global ptr null, align 8
@_ZN7consoleL3outE = internal global ptr null, align 8
@.str.2 = private unnamed_addr constant [1 x i8] zeroinitializer, align 1

; Function Attrs: mustprogress uwtable
define void @_ZN7console4initEbb(i1 noundef zeroext %0, i1 noundef zeroext %1) #4 {
  %3 = alloca i8, align 1
  %4 = alloca i8, align 1
  %5 = alloca %struct.termios, align 4
  %6 = zext i1 %0 to i8
  store i8 %6, ptr %3, align 1, !tbaa !3
  %7 = zext i1 %1 to i8
  store i8 %7, ptr %4, align 1, !tbaa !3
  %8 = load i8, ptr %4, align 1, !tbaa !3, !range !7, !noundef !8
  %9 = trunc i8 %8 to i1
  %10 = zext i1 %9 to i8
  store i8 %10, ptr @_ZN7consoleL16advanced_displayE, align 1, !tbaa !3
  %11 = load i8, ptr %3, align 1, !tbaa !3, !range !7, !noundef !8
  %12 = trunc i8 %11 to i1
  %13 = zext i1 %12 to i8
  store i8 %13, ptr @_ZN7consoleL9simple_ioE, align 1, !tbaa !3
  %14 = load i8, ptr @_ZN7consoleL9simple_ioE, align 1, !tbaa !3, !range !7, !noundef !8
  %15 = trunc i8 %14 to i1
  br i1 %15, label %32, label %16

16:                                               ; preds = %2
  call void @llvm.lifetime.start.p0(i64 60, ptr %5) #3
  %17 = call i32 @tcgetattr(i32 noundef 0, ptr noundef @_ZN7consoleL13initial_stateE) #3
  call void @llvm.memcpy.p0.p0.i64(ptr align 4 %5, ptr align 4 @_ZN7consoleL13initial_stateE, i64 60, i1 false), !tbaa.struct !9
  %18 = getelementptr inbounds nuw %struct.termios, ptr %5, i32 0, i32 3
  %19 = load i32, ptr %18, align 4, !tbaa !13
  %20 = and i32 %19, -11
  store i32 %20, ptr %18, align 4, !tbaa !13
  %21 = getelementptr inbounds nuw %struct.termios, ptr %5, i32 0, i32 5
  %22 = getelementptr inbounds [32 x i8], ptr %21, i64 0, i64 6
  store i8 1, ptr %22, align 1, !tbaa !12
  %23 = getelementptr inbounds nuw %struct.termios, ptr %5, i32 0, i32 5
  %24 = getelementptr inbounds [32 x i8], ptr %23, i64 0, i64 5
  store i8 0, ptr %24, align 1, !tbaa !12
  %25 = call i32 @tcsetattr(i32 noundef 0, i32 noundef 0, ptr noundef %5) #3
  %26 = call noalias ptr @fopen(ptr noundef @.str, ptr noundef @.str.1)
  store ptr %26, ptr @_ZN7consoleL3ttyE, align 8, !tbaa !15
  %27 = load ptr, ptr @_ZN7consoleL3ttyE, align 8, !tbaa !15
  %28 = icmp ne ptr %27, null
  br i1 %28, label %29, label %31

29:                                               ; preds = %16
  %30 = load ptr, ptr @_ZN7consoleL3ttyE, align 8, !tbaa !15
  store ptr %30, ptr @_ZN7consoleL3outE, align 8, !tbaa !15
  br label %31

31:                                               ; preds = %29, %16
  call void @llvm.lifetime.end.p0(i64 60, ptr %5) #3
  br label %32

32:                                               ; preds = %31, %2
  %33 = call ptr @setlocale(i32 noundef 6, ptr noundef @.str.2) #3
  ret void
}