; Function Attrs: mustprogress nounwind uwtable
define void @_ZN7console4initEbb(i1 noundef zeroext %0, i1 noundef zeroext %1) local_unnamed_addr #3 {
  %3 = alloca %struct.termios, align 4
  %4 = zext i1 %0 to i8
  %5 = zext i1 %1 to i8
  store i8 %5, ptr @_ZN7consoleL16advanced_displayE, align 1, !tbaa !3
  store i8 %4, ptr @_ZN7consoleL9simple_ioE, align 1, !tbaa !3
  br i1 %0, label %17, label %6

6:                                                ; preds = %2
  call void @llvm.lifetime.start.p0(i64 60, ptr nonnull %3) #17
  %7 = tail call i32 @tcgetattr(i32 noundef 0, ptr noundef nonnull @_ZN7consoleL13initial_stateE) #17
  call void @llvm.memcpy.p0.p0.i64(ptr noundef nonnull align 4 dereferenceable(60) %3, ptr noundef nonnull align 4 dereferenceable(60) @_ZN7consoleL13initial_stateE, i64 60, i1 false), !tbaa.struct !7
  %8 = getelementptr inbounds nuw i8, ptr %3, i64 12
  %9 = load i32, ptr %8, align 4, !tbaa !11
  %10 = and i32 %9, -11
  store i32 %10, ptr %8, align 4, !tbaa !11
  %11 = getelementptr inbounds nuw i8, ptr %3, i64 23
  store i8 1, ptr %11, align 1, !tbaa !10
  %12 = getelementptr inbounds nuw i8, ptr %3, i64 22
  store i8 0, ptr %12, align 2, !tbaa !10
  %13 = call i32 @tcsetattr(i32 noundef 0, i32 noundef 0, ptr noundef nonnull %3) #17
  %14 = call noalias ptr @fopen(ptr noundef nonnull @.str, ptr noundef nonnull @.str.1)
  store ptr %14, ptr @_ZN7consoleL3ttyE, align 8, !tbaa !13
  %.not = icmp eq ptr %14, null
  br i1 %.not, label %16, label %15

15:                                               ; preds = %6
  store ptr %14, ptr @_ZN7consoleL3outE, align 8, !tbaa !13
  br label %16

16:                                               ; preds = %15, %6
  call void @llvm.lifetime.end.p0(i64 60, ptr nonnull %3) #17
  br label %17

17:                                               ; preds = %16, %2
  %18 = call ptr @setlocale(i32 noundef 6, ptr noundef nonnull @.str.2) #17
  ret void
}